target datalayout = "e-m:e-p270:32:32-p271:32:32-p272:64:64-i64:64-i128:128-f80:128-n8:16:32:64-S128"
target triple = "x86_64-pc-linux-gnu"

%"class.cv::DISOpticalFlowImpl" = type { %"class.cv::DISOpticalFlow", i32, i32, i32, i32, i32, i32, float, float, float, float, i8, i8, i32, i32, i32, i32, i32, %"class.std::vector", %"class.std::vector", %"class.std::vector", %"class.std::vector.0", %"class.std::vector.0", %"class.std::vector.5", %"class.std::vector.5", %"class.std::vector.5", %"class.std::vector.5", %"class.cv::Mat_", %"class.cv::Mat_.10", %"class.cv::Mat_.10", %"class.cv::Mat_.10", %"class.cv::Mat_.10", %"class.cv::Mat_.10", %"class.cv::Mat_.10", %"class.cv::Mat_.10", %"class.cv::Mat_.10", %"class.cv::Mat_.10", %"class.cv::Mat_.10", %"class.cv::Mat_.10", %"class.cv::Mat_.10", %"class.std::vector.11" }
%"class.cv::DISOpticalFlow" = type { %"class.cv::DenseOpticalFlow" }
%"class.cv::DenseOpticalFlow" = type { %"class.cv::Algorithm" }
%"class.cv::Algorithm" = type { ptr }
%"class.std::vector" = type { %"struct.std::_Vector_base" }
%"struct.std::_Vector_base" = type { %"struct.std::_Vector_base<cv::Mat_<unsigned char>, std::allocator<cv::Mat_<unsigned char>>>::_Vector_impl" }
%"struct.std::_Vector_base<cv::Mat_<unsigned char>, std::allocator<cv::Mat_<unsigned char>>>::_Vector_impl" = type { %"struct.std::_Vector_base<cv::Mat_<unsigned char>, std::allocator<cv::Mat_<unsigned char>>>::_Vector_impl_data" }
%"struct.std::_Vector_base<cv::Mat_<unsigned char>, std::allocator<cv::Mat_<unsigned char>>>::_Vector_impl_data" = type { ptr, ptr, ptr }
%"class.std::vector.0" = type { %"struct.std::_Vector_base.1" }
%"struct.std::_Vector_base.1" = type { %"struct.std::_Vector_base<cv::Mat_<short>, std::allocator<cv::Mat_<short>>>::_Vector_impl" }
%"struct.std::_Vector_base<cv::Mat_<short>, std::allocator<cv::Mat_<short>>>::_Vector_impl" = type { %"struct.std::_Vector_base<cv::Mat_<short>, std::allocator<cv::Mat_<short>>>::_Vector_impl_data" }
%"struct.std::_Vector_base<cv::Mat_<short>, std::allocator<cv::Mat_<short>>>::_Vector_impl_data" = type { ptr, ptr, ptr }
%"class.std::vector.5" = type { %"struct.std::_Vector_base.6" }
%"struct.std::_Vector_base.6" = type { %"struct.std::_Vector_base<cv::Mat_<float>, std::allocator<cv::Mat_<float>>>::_Vector_impl" }
%"struct.std::_Vector_base<cv::Mat_<float>, std::allocator<cv::Mat_<float>>>::_Vector_impl" = type { %"struct.std::_Vector_base<cv::Mat_<float>, std::allocator<cv::Mat_<float>>>::_Vector_impl_data" }
%"struct.std::_Vector_base<cv::Mat_<float>, std::allocator<cv::Mat_<float>>>::_Vector_impl_data" = type { ptr, ptr, ptr }
%"class.cv::Mat_" = type { %"class.cv::Mat" }
%"class.cv::Mat" = type { i32, i32, i32, i32, ptr, ptr, ptr, ptr, ptr, ptr, %"struct.cv::MatSize", %"struct.cv::MatStep" }
%"struct.cv::MatSize" = type { ptr }
%"struct.cv::MatStep" = type { ptr, [2 x i64] }
%"class.cv::Mat_.10" = type { %"class.cv::Mat" }
%"class.std::vector.11" = type { %"struct.std::_Vector_base.12" }
%"struct.std::_Vector_base.12" = type { %"struct.std::_Vector_base<cv::Ptr<cv::VariationalRefinement>, std::allocator<cv::Ptr<cv::VariationalRefinement>>>::_Vector_impl" }
%"struct.std::_Vector_base<cv::Ptr<cv::VariationalRefinement>, std::allocator<cv::Ptr<cv::VariationalRefinement>>>::_Vector_impl" = type { %"struct.std::_Vector_base<cv::Ptr<cv::VariationalRefinement>, std::allocator<cv::Ptr<cv::VariationalRefinement>>>::_Vector_impl_data" }
%"struct.std::_Vector_base<cv::Ptr<cv::VariationalRefinement>, std::allocator<cv::Ptr<cv::VariationalRefinement>>>::_Vector_impl_data" = type { ptr, ptr, ptr }

; Function Attrs: inlinehint mustprogress nounwind uwtable
define linkonce_odr noundef nonnull align 4 dereferenceable(4) ptr @_ZSt3maxIiERKT_S2_S2_(ptr noundef nonnull align 4 dereferenceable(4) %0, ptr noundef nonnull align 4 dereferenceable(4) %1) #3 comdat {
  %3 = alloca ptr, align 8
  %4 = alloca ptr, align 8
  %5 = alloca ptr, align 8
  store ptr %0, ptr %4, align 8, !tbaa !151
  store ptr %1, ptr %5, align 8, !tbaa !151
  %6 = load ptr, ptr %4, align 8, !tbaa !151
  %7 = load i32, ptr %6, align 4, !tbaa !60
  %8 = load ptr, ptr %5, align 8, !tbaa !151
  %9 = load i32, ptr %8, align 4, !tbaa !60
  %10 = icmp slt i32 %7, %9
  br i1 %10, label %11, label %13

11:                                               ; preds = %2
  %12 = load ptr, ptr %5, align 8, !tbaa !151
  store ptr %12, ptr %3, align 8
  br label %15

13:                                               ; preds = %2
  %14 = load ptr, ptr %4, align 8, !tbaa !151
  store ptr %14, ptr %3, align 8
  br label %15

15:                                               ; preds = %13, %11
  %16 = load ptr, ptr %3, align 8
  ret ptr %16
}

; Function Attrs: inlinehint mustprogress nounwind uwtable
define linkonce_odr noundef float @_ZSt5floorf(float noundef %0) #3 comdat {
  %2 = alloca float, align 4
  store float %0, ptr %2, align 4, !tbaa !129
  %3 = load float, ptr %2, align 4, !tbaa !129
  %4 = call float @llvm.floor.f32(float %3)
  ret float %4
}

; Function Attrs: mustprogress nounwind uwtable
define linkonce_odr noundef float @_ZSt4log2f(float noundef %0) #2 comdat {
  %2 = alloca float, align 4
  store float %0, ptr %2, align 4, !tbaa !129
  %3 = load float, ptr %2, align 4, !tbaa !129
  %4 = call float @log2f(float noundef %3) #18, !tbaa !60
  ret float %4
}

; Function Attrs: mustprogress uwtable
define hidden noundef i32 @_ZN2cv18DISOpticalFlowImpl23autoSelectCoarsestScaleEi(ptr noundef nonnull align 8 dereferenceable(1560) %0, i32 noundef %1) #0 align 2 {
  %3 = alloca ptr, align 8
  %4 = alloca i32, align 4
  %5 = alloca i32, align 4
  %6 = alloca i32, align 4
  %7 = alloca i32, align 4
  store ptr %0, ptr %3, align 8, !tbaa !3
  store i32 %1, ptr %4, align 4, !tbaa !60
  %8 = load ptr, ptr %3, align 8
  call void @llvm.lifetime.start.p0(i64 4, ptr %5) #18
  store i32 5, ptr %5, align 4, !tbaa !60
  call void @llvm.lifetime.start.p0(i64 4, ptr %6) #18
  store i32 0, ptr %6, align 4, !tbaa !60
  call void @llvm.lifetime.start.p0(i64 4, ptr %7) #18
  %9 = load i32, ptr %4, align 4, !tbaa !60
  %10 = sitofp i32 %9 to float
  %11 = fmul float 2.000000e+00, %10
  %12 = getelementptr inbounds nuw %"class.cv::DISOpticalFlowImpl", ptr %8, i32 0, i32 3
  %13 = load i32, ptr %12, align 8, !tbaa !48
  %14 = sitofp i32 %13 to float
  %15 = fmul float 5.000000e+00, %14
  %16 = fdiv float %11, %15
  %17 = call noundef float @_ZSt4log2f(float noundef %16)
  %18 = call noundef float @_ZSt5floorf(float noundef %17)
  %19 = fptosi float %18 to i32
  store i32 %19, ptr %7, align 4, !tbaa !60
  %20 = call noundef nonnull align 4 dereferenceable(4) ptr @_ZSt3maxIiERKT_S2_S2_(ptr noundef nonnull align 4 dereferenceable(4) %6, ptr noundef nonnull align 4 dereferenceable(4) %7)
  %21 = load i32, ptr %20, align 4, !tbaa !60
  call void @llvm.lifetime.end.p0(i64 4, ptr %7) #18
  call void @llvm.lifetime.end.p0(i64 4, ptr %6) #18
  call void @llvm.lifetime.end.p0(i64 4, ptr %5) #18
  ret i32 %21
}