; Function Attrs: mustprogress nofree nounwind willreturn memory(write, argmem: readwrite) uwtable
define hidden noundef range(i32 0, -2147483648) i32 @_ZN2cv18DISOpticalFlowImpl23autoSelectCoarsestScaleEi(ptr noundef nonnull readonly align 8 captures(none) dereferenceable(1560) %0, i32 noundef %1) local_unnamed_addr #6 align 2 {
  %3 = sitofp i32 %1 to float
  %4 = fmul float %3, 2.000000e+00
  %5 = getelementptr inbounds nuw i8, ptr %0, i64 16
  %6 = load i32, ptr %5, align 8, !tbaa !47
  %7 = sitofp i32 %6 to float
  %8 = fmul float %7, 5.000000e+00
  %9 = fdiv float %4, %8
  %10 = tail call noundef float @log2f(float noundef %9) #21, !tbaa !74
  %11 = tail call noundef float @llvm.floor.f32(float %10)
  %12 = fptosi float %11 to i32
  %.sroa.speculated = tail call i32 @llvm.smax.i32(i32 %12, i32 0)
  ret i32 %.sroa.speculated
}